target datalayout = "e-m:e-p270:32:32-p271:32:32-p272:64:64-i64:64-i128:128-f80:128-n8:16:32:64-S128"
target triple = "x86_64-pc-linux-gnu"

%"class.doctest::String" = type { %union.anon.7 }
%union.anon.7 = type { %"struct.doctest::String::view", [8 x i8] }
%"struct.doctest::String::view" = type { ptr, i32, i32 }
%"class.doctest::Contains" = type { %"class.doctest::String" }
%"struct.doctest::ContextOptions" = type <{ ptr, %"class.doctest::String", ptr, %"class.doctest::String", %"class.doctest::String", i32, i32, i32, i32, i32, i8, i8, i8, i8, i8, i8, i8, i8, i8, i8, i8, i8, i8, i8, i8, i8, i8, i8, i8, i8, i8, i8, i8, i8, i8, i8, i8, i8 }>
%"struct.doctest::AssertData" = type { ptr, i32, ptr, i32, ptr, i8, i8, %"class.doctest::String", %"class.doctest::String", i8, ptr, %"class.doctest::AssertData::StringContains" }
%"class.doctest::AssertData::StringContains" = type <{ %"class.doctest::Contains", i8, [7 x i8] }>

@_ZN7doctest6detail4g_csE = dso_local global ptr null, align 8
@_ZN7doctest6StringC1Ev = dso_local unnamed_addr alias void (ptr), ptr @_ZN7doctest6StringC2Ev
@_ZN7doctest6StringD1Ev = dso_local unnamed_addr alias void (ptr), ptr @_ZN7doctest6StringD2Ev
@_ZN7doctest6StringC1ERKS0_ = dso_local unnamed_addr alias void (ptr, ptr), ptr @_ZN7doctest6StringC2ERKS0_
@_ZN7doctest6StringC1EOS0_ = dso_local unnamed_addr alias void (ptr, ptr), ptr @_ZN7doctest6StringC2EOS0_

; Function Attrs: inlinehint mustprogress uwtable
define linkonce_odr dso_local void @_ZN7doctest10AssertData14StringContainsC2ERKS1_(ptr noundef nonnull align 8 dereferenceable(25) %0, ptr noundef nonnull align 8 dereferenceable(25) %1) unnamed_addr #9 comdat align 2 {
  %3 = alloca ptr, align 8
  %4 = alloca ptr, align 8
  store ptr %0, ptr %3, align 8, !tbaa !270
  store ptr %1, ptr %4, align 8, !tbaa !270
  %5 = load ptr, ptr %3, align 8
  %6 = getelementptr inbounds nuw %"class.doctest::AssertData::StringContains", ptr %5, i32 0, i32 0
  %7 = load ptr, ptr %4, align 8, !tbaa !270
  %8 = getelementptr inbounds nuw %"class.doctest::AssertData::StringContains", ptr %7, i32 0, i32 0
  call void @_ZN7doctest8ContainsC2ERKS0_(ptr noundef nonnull align 8 dereferenceable(24) %6, ptr noundef nonnull align 8 dereferenceable(24) %8)
  %9 = getelementptr inbounds nuw %"class.doctest::AssertData::StringContains", ptr %5, i32 0, i32 1
  %10 = load ptr, ptr %4, align 8, !tbaa !270
  %11 = getelementptr inbounds nuw %"class.doctest::AssertData::StringContains", ptr %10, i32 0, i32 1
  %12 = load i8, ptr %11, align 8, !tbaa !285, !range !36, !noundef !37
  %13 = trunc i8 %12 to i1
  %14 = zext i1 %13 to i8
  store i8 %14, ptr %9, align 8, !tbaa !285
  ret void
}

; Function Attrs: inlinehint mustprogress nounwind uwtable
define linkonce_odr dso_local void @_ZN7doctest8ContainsC2EOS0_(ptr noundef nonnull align 8 dereferenceable(24) %0, ptr noundef nonnull align 8 dereferenceable(24) %1) unnamed_addr #4 comdat align 2 {
  %3 = alloca ptr, align 8
  %4 = alloca ptr, align 8
  store ptr %0, ptr %3, align 8, !tbaa !71
  store ptr %1, ptr %4, align 8, !tbaa !71
  %5 = load ptr, ptr %3, align 8
  %6 = getelementptr inbounds nuw %"class.doctest::Contains", ptr %5, i32 0, i32 0
  %7 = load ptr, ptr %4, align 8, !tbaa !71
  %8 = getelementptr inbounds nuw %"class.doctest::Contains", ptr %7, i32 0, i32 0
  call void @_ZN7doctest6StringC1EOS0_(ptr noundef nonnull align 8 dereferenceable(24) %6, ptr noundef nonnull align 8 dereferenceable(24) %8) #7
  ret void
}

; Function Attrs: inlinehint mustprogress nounwind uwtable
define linkonce_odr dso_local void @_ZN7doctest8ContainsD2Ev(ptr noundef nonnull align 8 dereferenceable(24) %0) unnamed_addr #4 comdat align 2 {
  %2 = alloca ptr, align 8
  store ptr %0, ptr %2, align 8, !tbaa !71
  %3 = load ptr, ptr %2, align 8
  %4 = getelementptr inbounds nuw %"class.doctest::Contains", ptr %3, i32 0, i32 0
  call void @_ZN7doctest6StringD1Ev(ptr noundef nonnull align 8 dereferenceable(24) %4) #7
  ret void
}

; Function Attrs: inlinehint mustprogress nounwind uwtable
define linkonce_odr dso_local void @_ZN7doctest10AssertData14StringContainsD2Ev(ptr noundef nonnull align 8 dereferenceable(25) %0) unnamed_addr #4 comdat align 2 {
  %2 = alloca ptr, align 8
  store ptr %0, ptr %2, align 8, !tbaa !270
  %3 = load ptr, ptr %2, align 8
  %4 = getelementptr inbounds nuw %"class.doctest::AssertData::StringContains", ptr %3, i32 0, i32 0
  call void @_ZN7doctest8ContainsD2Ev(ptr noundef nonnull align 8 dereferenceable(24) %4) #7
  ret void
}

; Function Attrs: mustprogress uwtable
define dso_local void @_ZN7doctest10AssertDataC2ENS_10assertType4EnumEPKciS4_S4_RKNS0_14StringContainsE(ptr noundef nonnull align 8 dereferenceable(144) %0, i32 noundef %1, ptr noundef %2, i32 noundef %3, ptr noundef %4, ptr noundef %5, ptr noundef nonnull align 8 dereferenceable(25) %6) unnamed_addr #8 align 2 personality ptr @__gxx_personality_v0 {
  %8 = alloca ptr, align 8
  %9 = alloca i32, align 4
  %10 = alloca ptr, align 8
  %11 = alloca i32, align 4
  %12 = alloca ptr, align 8
  %13 = alloca ptr, align 8
  %14 = alloca ptr, align 8
  %15 = alloca ptr, align 8
  %16 = alloca i32, align 4
  store ptr %0, ptr %8, align 8, !tbaa !268
  store i32 %1, ptr %9, align 4, !tbaa !79
  store ptr %2, ptr %10, align 8, !tbaa !14
  store i32 %3, ptr %11, align 4, !tbaa !4
  store ptr %4, ptr %12, align 8, !tbaa !14
  store ptr %5, ptr %13, align 8, !tbaa !14
  store ptr %6, ptr %14, align 8, !tbaa !270
  %17 = load ptr, ptr %8, align 8
  %18 = getelementptr inbounds nuw %"struct.doctest::AssertData", ptr %17, i32 0, i32 0
  %19 = load ptr, ptr @_ZN7doctest6detail4g_csE, align 8, !tbaa !84
  %20 = getelementptr inbounds nuw %"struct.doctest::ContextOptions", ptr %19, i32 0, i32 2
  %21 = load ptr, ptr %20, align 8, !tbaa !272
  store ptr %21, ptr %18, align 8, !tbaa !273
  %22 = getelementptr inbounds nuw %"struct.doctest::AssertData", ptr %17, i32 0, i32 1
  %23 = load i32, ptr %9, align 4, !tbaa !79
  store i32 %23, ptr %22, align 8, !tbaa !277
  %24 = getelementptr inbounds nuw %"struct.doctest::AssertData", ptr %17, i32 0, i32 2
  %25 = load ptr, ptr %10, align 8, !tbaa !14
  store ptr %25, ptr %24, align 8, !tbaa !278
  %26 = getelementptr inbounds nuw %"struct.doctest::AssertData", ptr %17, i32 0, i32 3
  %27 = load i32, ptr %11, align 4, !tbaa !4
  store i32 %27, ptr %26, align 8, !tbaa !279
  %28 = getelementptr inbounds nuw %"struct.doctest::AssertData", ptr %17, i32 0, i32 4
  %29 = load ptr, ptr %12, align 8, !tbaa !14
  store ptr %29, ptr %28, align 8, !tbaa !280
  %30 = getelementptr inbounds nuw %"struct.doctest::AssertData", ptr %17, i32 0, i32 5
  store i8 1, ptr %30, align 8, !tbaa !281
  %31 = getelementptr inbounds nuw %"struct.doctest::AssertData", ptr %17, i32 0, i32 6
  store i8 0, ptr %31, align 1, !tbaa !282
  %32 = getelementptr inbounds nuw %"struct.doctest::AssertData", ptr %17, i32 0, i32 7
  call void @_ZN7doctest6StringC1Ev(ptr noundef nonnull align 8 dereferenceable(24) %32) #7
  %33 = getelementptr inbounds nuw %"struct.doctest::AssertData", ptr %17, i32 0, i32 8
  call void @_ZN7doctest6StringC1Ev(ptr noundef nonnull align 8 dereferenceable(24) %33) #7
  %34 = getelementptr inbounds nuw %"struct.doctest::AssertData", ptr %17, i32 0, i32 9
  store i8 0, ptr %34, align 8, !tbaa !283
  %35 = getelementptr inbounds nuw %"struct.doctest::AssertData", ptr %17, i32 0, i32 10
  %36 = load ptr, ptr %13, align 8, !tbaa !14
  store ptr %36, ptr %35, align 8, !tbaa !284
  %37 = getelementptr inbounds nuw %"struct.doctest::AssertData", ptr %17, i32 0, i32 11
  %38 = load ptr, ptr %14, align 8, !tbaa !270
  invoke void @_ZN7doctest10AssertData14StringContainsC2ERKS1_(ptr noundef nonnull align 8 dereferenceable(25) %37, ptr noundef nonnull align 8 dereferenceable(25) %38)
          to label %39 unwind label %40

39:                                               ; preds = %7
  ret void

40:                                               ; preds = %7
  %41 = landingpad { ptr, i32 }
          cleanup
  %42 = extractvalue { ptr, i32 } %41, 0
  store ptr %42, ptr %15, align 8
  %43 = extractvalue { ptr, i32 } %41, 1
  store i32 %43, ptr %16, align 4
  call void @_ZN7doctest6StringD1Ev(ptr noundef nonnull align 8 dereferenceable(24) %33) #7
  call void @_ZN7doctest6StringD1Ev(ptr noundef nonnull align 8 dereferenceable(24) %32) #7
  br label %44

44:                                               ; preds = %40
  %45 = load ptr, ptr %15, align 8
  %46 = load i32, ptr %16, align 4
  %47 = insertvalue { ptr, i32 } poison, ptr %45, 0
  %48 = insertvalue { ptr, i32 } %47, i32 %46, 1
  resume { ptr, i32 } %48
}

; Function Attrs: mustprogress nounwind uwtable
define linkonce_odr dso_local void @_ZN7doctest10AssertData14StringContainsC2ENS_8ContainsE(ptr noundef nonnull align 8 dereferenceable(25) %0, ptr noundef %1) unnamed_addr #1 comdat align 2 {
  %3 = alloca ptr, align 8
  %4 = alloca ptr, align 8
  store ptr %0, ptr %3, align 8, !tbaa !270
  store ptr %1, ptr %4, align 8, !tbaa !71
  %5 = load ptr, ptr %3, align 8
  %6 = getelementptr inbounds nuw %"class.doctest::AssertData::StringContains", ptr %5, i32 0, i32 0
  call void @_ZN7doctest8ContainsC2EOS0_(ptr noundef nonnull align 8 dereferenceable(24) %6, ptr noundef nonnull align 8 dereferenceable(24) %1) #7
  %7 = getelementptr inbounds nuw %"class.doctest::AssertData::StringContains", ptr %5, i32 0, i32 1
  store i8 1, ptr %7, align 8, !tbaa !285
  ret void
}

; Function Attrs: inlinehint mustprogress uwtable
define linkonce_odr dso_local void @_ZN7doctest8ContainsC2ERKS0_(ptr noundef nonnull align 8 dereferenceable(24) %0, ptr noundef nonnull align 8 dereferenceable(24) %1) unnamed_addr #9 comdat align 2 {
  %3 = alloca ptr, align 8
  %4 = alloca ptr, align 8
  store ptr %0, ptr %3, align 8, !tbaa !71
  store ptr %1, ptr %4, align 8, !tbaa !71
  %5 = load ptr, ptr %3, align 8
  %6 = getelementptr inbounds nuw %"class.doctest::Contains", ptr %5, i32 0, i32 0
  %7 = load ptr, ptr %4, align 8, !tbaa !71
  %8 = getelementptr inbounds nuw %"class.doctest::Contains", ptr %7, i32 0, i32 0
  call void @_ZN7doctest6StringC1ERKS0_(ptr noundef nonnull align 8 dereferenceable(24) %6, ptr noundef nonnull align 8 dereferenceable(24) %8)
  ret void
}

; Function Attrs: mustprogress uwtable
define dso_local void @_ZN7doctest6detail13ResultBuilderC2ENS_10assertType4EnumEPKciS5_S5_RKNS_8ContainsE(ptr noundef nonnull align 8 dereferenceable(144) %0, i32 noundef %1, ptr noundef %2, i32 noundef %3, ptr noundef %4, ptr noundef %5, ptr noundef nonnull align 8 dereferenceable(24) %6) unnamed_addr #8 align 2 personality ptr @__gxx_personality_v0 {
  %8 = alloca ptr, align 8
  %9 = alloca i32, align 4
  %10 = alloca ptr, align 8
  %11 = alloca i32, align 4
  %12 = alloca ptr, align 8
  %13 = alloca ptr, align 8
  %14 = alloca ptr, align 8
  %15 = alloca %"class.doctest::AssertData::StringContains", align 8
  %16 = alloca %"class.doctest::Contains", align 8
  %17 = alloca ptr, align 8
  %18 = alloca i32, align 4
  store ptr %0, ptr %8, align 8, !tbaa !286
  store i32 %1, ptr %9, align 4, !tbaa !79
  store ptr %2, ptr %10, align 8, !tbaa !14
  store i32 %3, ptr %11, align 4, !tbaa !4
  store ptr %4, ptr %12, align 8, !tbaa !14
  store ptr %5, ptr %13, align 8, !tbaa !14
  store ptr %6, ptr %14, align 8, !tbaa !71
  %19 = load ptr, ptr %8, align 8
  %20 = load i32, ptr %9, align 4, !tbaa !79
  %21 = load ptr, ptr %10, align 8, !tbaa !14
  %22 = load i32, ptr %11, align 4, !tbaa !4
  %23 = load ptr, ptr %12, align 8, !tbaa !14
  %24 = load ptr, ptr %13, align 8, !tbaa !14
  call void @llvm.lifetime.start.p0(i64 32, ptr %15) #7
  %25 = load ptr, ptr %14, align 8, !tbaa !71
  call void @_ZN7doctest8ContainsC2ERKS0_(ptr noundef nonnull align 8 dereferenceable(24) %16, ptr noundef nonnull align 8 dereferenceable(24) %25)
  invoke void @_ZN7doctest10AssertData14StringContainsC2ENS_8ContainsE(ptr noundef nonnull align 8 dereferenceable(25) %15, ptr noundef %16)
          to label %26 unwind label %28

26:                                               ; preds = %7
  invoke void @_ZN7doctest10AssertDataC2ENS_10assertType4EnumEPKciS4_S4_RKNS0_14StringContainsE(ptr noundef nonnull align 8 dereferenceable(144) %19, i32 noundef %20, ptr noundef %21, i32 noundef %22, ptr noundef %23, ptr noundef %24, ptr noundef nonnull align 8 dereferenceable(25) %15)
          to label %27 unwind label %32

27:                                               ; preds = %26
  call void @_ZN7doctest10AssertData14StringContainsD2Ev(ptr noundef nonnull align 8 dereferenceable(25) %15) #7
  call void @_ZN7doctest8ContainsD2Ev(ptr noundef nonnull align 8 dereferenceable(24) %16) #7
  call void @llvm.lifetime.end.p0(i64 32, ptr %15) #7
  ret void

28:                                               ; preds = %7
  %29 = landingpad { ptr, i32 }
          cleanup
  %30 = extractvalue { ptr, i32 } %29, 0
  store ptr %30, ptr %17, align 8
  %31 = extractvalue { ptr, i32 } %29, 1
  store i32 %31, ptr %18, align 4
  br label %36

32:                                               ; preds = %26
  %33 = landingpad { ptr, i32 }
          cleanup
  %34 = extractvalue { ptr, i32 } %33, 0
  store ptr %34, ptr %17, align 8
  %35 = extractvalue { ptr, i32 } %33, 1
  store i32 %35, ptr %18, align 4
  call void @_ZN7doctest10AssertData14StringContainsD2Ev(ptr noundef nonnull align 8 dereferenceable(25) %15) #7
  br label %36

36:                                               ; preds = %32, %28
  call void @_ZN7doctest8ContainsD2Ev(ptr noundef nonnull align 8 dereferenceable(24) %16) #7
  call void @llvm.lifetime.end.p0(i64 32, ptr %15) #7
  br label %37

37:                                               ; preds = %36
  %38 = load ptr, ptr %17, align 8
  %39 = load i32, ptr %18, align 4
  %40 = insertvalue { ptr, i32 } poison, ptr %38, 0
  %41 = insertvalue { ptr, i32 } %40, i32 %39, 1
  resume { ptr, i32 } %41
}